target datalayout = "e-m:e-p270:32:32-p271:32:32-p272:64:64-i64:64-i128:128-f80:128-n8:16:32:64-S128"
target triple = "x86_64-pc-linux-gnu"

%"class.IlmThread_3_4::Thread" = type { ptr, %"class.std::thread" }
%"class.std::thread" = type { %"class.std::thread::id" }
%"class.std::thread::id" = type { i64 }

; Function Attrs: inlinehint mustprogress nounwind uwtable
define linkonce_odr noundef zeroext i1 @_ZSteqNSt6thread2idES0_(i64 %0, i64 %1) #6 comdat {
  %3 = alloca %"class.std::thread::id", align 8
  %4 = alloca %"class.std::thread::id", align 8
  %5 = getelementptr inbounds nuw %"class.std::thread::id", ptr %3, i32 0, i32 0
  store i64 %0, ptr %5, align 8
  %6 = getelementptr inbounds nuw %"class.std::thread::id", ptr %4, i32 0, i32 0
  store i64 %1, ptr %6, align 8
  %7 = getelementptr inbounds nuw %"class.std::thread::id", ptr %3, i32 0, i32 0
  %8 = load i64, ptr %7, align 8, !tbaa !24
  %9 = getelementptr inbounds nuw %"class.std::thread::id", ptr %4, i32 0, i32 0
  %10 = load i64, ptr %9, align 8, !tbaa !24
  %11 = icmp eq i64 %8, %10
  ret i1 %11
}

; Function Attrs: mustprogress nounwind uwtable
define linkonce_odr hidden void @_ZNSt6thread2idC2Ev(ptr noundef nonnull align 8 dereferenceable(8) %0) unnamed_addr #0 comdat align 2 {
  %2 = alloca ptr, align 8
  store ptr %0, ptr %2, align 8, !tbaa !22
  %3 = load ptr, ptr %2, align 8
  %4 = getelementptr inbounds nuw %"class.std::thread::id", ptr %3, i32 0, i32 0
  store i64 0, ptr %4, align 8, !tbaa !24
  ret void
}

; Function Attrs: mustprogress nounwind uwtable
define linkonce_odr hidden noundef zeroext i1 @_ZNKSt6thread8joinableEv(ptr noundef nonnull align 8 dereferenceable(8) %0) #0 comdat align 2 {
  %2 = alloca ptr, align 8
  %3 = alloca %"class.std::thread::id", align 8
  %4 = alloca %"class.std::thread::id", align 8
  store ptr %0, ptr %2, align 8, !tbaa !10
  %5 = load ptr, ptr %2, align 8
  %6 = getelementptr inbounds nuw %"class.std::thread", ptr %5, i32 0, i32 0
  call void @llvm.memcpy.p0.p0.i64(ptr align 8 %3, ptr align 8 %6, i64 8, i1 false), !tbaa.struct !12
  call void @_ZNSt6thread2idC2Ev(ptr noundef nonnull align 8 dereferenceable(8) %4) #13
  %7 = getelementptr inbounds nuw %"class.std::thread::id", ptr %3, i32 0, i32 0
  %8 = load i64, ptr %7, align 8
  %9 = getelementptr inbounds nuw %"class.std::thread::id", ptr %4, i32 0, i32 0
  %10 = load i64, ptr %9, align 8
  %11 = call noundef zeroext i1 @_ZSteqNSt6thread2idES0_(i64 %8, i64 %10) #13
  %12 = xor i1 %11, true
  ret i1 %12
}

; Function Attrs: mustprogress uwtable
define void @_ZN13IlmThread_3_46Thread4joinEv(ptr noundef nonnull align 8 dereferenceable(16) %0) #4 align 2 {
  %2 = alloca ptr, align 8
  store ptr %0, ptr %2, align 8, !tbaa !3
  %3 = load ptr, ptr %2, align 8
  %4 = getelementptr inbounds nuw %"class.IlmThread_3_4::Thread", ptr %3, i32 0, i32 1
  %5 = call noundef zeroext i1 @_ZNKSt6thread8joinableEv(ptr noundef nonnull align 8 dereferenceable(8) %4) #13
  br i1 %5, label %6, label %8

6:                                                ; preds = %1
  %7 = getelementptr inbounds nuw %"class.IlmThread_3_4::Thread", ptr %3, i32 0, i32 1
  call void @_ZNSt6thread4joinEv(ptr noundef nonnull align 8 dereferenceable(8) %7)
  br label %8

8:                                                ; preds = %6, %1
  ret void
}