; Function Attrs: mustprogress uwtable
define void @_ZN13IlmThread_3_46Thread4joinEv(ptr noundef nonnull align 8 dereferenceable(16) %0) local_unnamed_addr #8 align 2 {
  %2 = getelementptr inbounds nuw i8, ptr %0, i64 8
  %.sroa.0.0.copyload.i = load i64, ptr %2, align 8, !tbaa !10
  %.not = icmp eq i64 %.sroa.0.0.copyload.i, 0
  br i1 %.not, label %4, label %3

3:                                                ; preds = %1
  tail call void @_ZNSt6thread4joinEv(ptr noundef nonnull align 8 dereferenceable(8) %2)
  br label %4

4:                                                ; preds = %3, %1
  ret void
}